target datalayout = "e-m:e-p270:32:32-p271:32:32-p272:64:64-i64:64-i128:128-f80:128-n8:16:32:64-S128"
target triple = "x86_64-pc-linux-gnu"

@.str.1 = private unnamed_addr constant [7 x i8] c"path.c\00", align 1
@.str.10 = private unnamed_addr constant [36 x i8] c"Could not make %s writable by group\00", align 1

; Function Attrs: nounwind uwtable
define dso_local void @safe_create_dir(ptr noundef %0, i32 noundef %1) #0 {
  %3 = alloca ptr, align 8
  %4 = alloca i32, align 4
  store ptr %0, ptr %3, align 8, !tbaa !43
  store i32 %1, ptr %4, align 4, !tbaa !4
  %5 = load ptr, ptr %3, align 8, !tbaa !43
  %6 = call i32 @mkdir(ptr noundef %5, i32 noundef 511) #12
  %7 = icmp slt i32 %6, 0
  br i1 %7, label %8, label %16

8:                                                ; preds = %2
  %9 = call ptr @__errno_location() #15
  %10 = load i32, ptr %9, align 4, !tbaa !4
  %11 = icmp ne i32 %10, 17
  br i1 %11, label %12, label %15

12:                                               ; preds = %8
  %13 = load ptr, ptr %3, align 8, !tbaa !43
  call void @perror(ptr noundef %13)
  %14 = call i32 @common_exit(ptr noundef @.str.1, i32 noundef 824, i32 noundef 1)
  call void @exit(i32 noundef %14) #16
  unreachable

15:                                               ; preds = %8
  br label %27

16:                                               ; preds = %2
  %17 = load i32, ptr %4, align 4, !tbaa !4
  %18 = icmp ne i32 %17, 0
  br i1 %18, label %19, label %26

19:                                               ; preds = %16
  %20 = load ptr, ptr %3, align 8, !tbaa !43
  %21 = call i32 @adjust_shared_perm(ptr noundef %20)
  %22 = icmp ne i32 %21, 0
  br i1 %22, label %23, label %26

23:                                               ; preds = %19
  %24 = call ptr @_(ptr noundef @.str.10)
  %25 = load ptr, ptr %3, align 8, !tbaa !43
  call void (ptr, ...) @die(ptr noundef %24, ptr noundef %25) #13
  unreachable

26:                                               ; preds = %19, %16
  br label %27

27:                                               ; preds = %26, %15
  ret void
}