; Function Attrs: nounwind uwtable
define dso_local void @safe_create_dir(ptr noundef %0, i32 noundef %1) local_unnamed_addr #3 {
  %3 = tail call i32 @mkdir(ptr noundef %0, i32 noundef 511) #29
  %4 = icmp slt i32 %3, 0
  br i1 %4, label %5, label %10

5:                                                ; preds = %2
  %6 = tail call ptr @__errno_location() #31
  %7 = load i32, ptr %6, align 4, !tbaa !4
  %.not5 = icmp eq i32 %7, 17
  br i1 %.not5, label %15, label %8

8:                                                ; preds = %5
  tail call void @perror(ptr noundef %0) #32
  %9 = tail call i32 @common_exit(ptr noundef nonnull @.str.1, i32 noundef 824, i32 noundef 1) #29
  tail call void @exit(i32 noundef %9) #28
  unreachable

10:                                               ; preds = %2
  %.not = icmp eq i32 %1, 0
  br i1 %.not, label %15, label %11

11:                                               ; preds = %10
  %12 = tail call i32 @adjust_shared_perm(ptr noundef %0)
  %.not4 = icmp eq i32 %12, 0
  br i1 %.not4, label %15, label %13

13:                                               ; preds = %11
  %14 = tail call fastcc ptr @_()
  tail call void (ptr, ...) @die(ptr noundef %14, ptr noundef %0) #28
  unreachable

15:                                               ; preds = %10, %11, %5
  ret void
}